; Function Attrs: mustprogress uwtable
define internal noundef zeroext i1 @_ZN12_GLOBAL__N_110AttrmapMap5applyERN5Yosys5RTLIL8IdStringERNS2_5ConstE(ptr noundef nonnull align 8 dereferenceable(144) %0, ptr noundef nonnull align 4 dereferenceable(4) %1, ptr noundef nonnull align 8 dereferenceable(32) %2) unnamed_addr #4 align 2 personality ptr @__gxx_personality_v0 {
  %4 = alloca %"class.std::__cxx11::basic_string", align 8
  %5 = alloca %"struct.Yosys::RTLIL::Const", align 8
  %6 = getelementptr inbounds i8, ptr %0, i64 16
  %7 = tail call fastcc noundef zeroext i1 @_ZN12_GLOBAL__N_110match_nameERNSt7__cxx1112basic_stringIcSt11char_traitsIcESaIcEEERN5Yosys5RTLIL8IdStringEb(ptr noundef nonnull align 8 dereferenceable(32) %6, ptr noundef nonnull align 4 dereferenceable(4) %1, i1 noundef zeroext false)
  br i1 %7, label %8, label %_ZN5Yosys5RTLIL5ConstD2Ev.exit

8:                                                ; preds = %3
  %9 = getelementptr inbounds i8, ptr %0, i64 80
  %10 = tail call fastcc noundef zeroext i1 @_ZN12_GLOBAL__N_111match_valueERNSt7__cxx1112basic_stringIcSt11char_traitsIcESaIcEEERN5Yosys5RTLIL5ConstEb(ptr noundef nonnull align 8 dereferenceable(32) %9, ptr noundef nonnull align 8 dereferenceable(32) %2, i1 noundef zeroext true)
  br i1 %10, label %11, label %_ZN5Yosys5RTLIL5ConstD2Ev.exit

11:                                               ; preds = %8
  %12 = getelementptr inbounds i8, ptr %0, i64 48
  %13 = tail call noundef i64 @_ZNKSt7__cxx1112basic_stringIcSt11char_traitsIcESaIcEE4sizeEv(ptr noundef nonnull align 8 dereferenceable(32) %12) #21, !noalias !64
  %.not.i = icmp eq i64 %13, 0
  br i1 %.not.i, label %21, label %14

14:                                               ; preds = %11
  %15 = tail call noundef nonnull align 1 dereferenceable(1) ptr @_ZNKSt7__cxx1112basic_stringIcSt11char_traitsIcESaIcEEixEm(ptr noundef nonnull align 8 dereferenceable(32) %12, i64 noundef 0) #21, !noalias !64
  %16 = load i8, ptr %15, align 1, !noalias !64
  %.not5.i = icmp eq i8 %16, 92
  br i1 %.not5.i, label %21, label %17

17:                                               ; preds = %14
  %18 = tail call noundef nonnull align 1 dereferenceable(1) ptr @_ZNKSt7__cxx1112basic_stringIcSt11char_traitsIcESaIcEEixEm(ptr noundef nonnull align 8 dereferenceable(32) %12, i64 noundef 0) #21, !noalias !64
  %19 = load i8, ptr %18, align 1, !noalias !64
  %.not6.i = icmp eq i8 %19, 36
  br i1 %.not6.i, label %21, label %20

20:                                               ; preds = %17
  call void @_ZStplIcSt11char_traitsIcESaIcEENSt7__cxx1112basic_stringIT_T0_T1_EEPKS5_RKS8_(ptr dead_on_unwind nonnull writable sret(%"class.std::__cxx11::basic_string") align 8 %4, ptr noundef nonnull @.str.38, ptr noundef nonnull align 8 dereferenceable(32) %12)
  br label %_ZN5Yosys5RTLILL9escape_idERKNSt7__cxx1112basic_stringIcSt11char_traitsIcESaIcEEE.exit

21:                                               ; preds = %17, %14, %11
  call void @_ZNSt7__cxx1112basic_stringIcSt11char_traitsIcESaIcEEC1ERKS4_(ptr noundef nonnull align 8 dereferenceable(32) %4, ptr noundef nonnull align 8 dereferenceable(32) %12)
  br label %_ZN5Yosys5RTLILL9escape_idERKNSt7__cxx1112basic_stringIcSt11char_traitsIcESaIcEEE.exit

_ZN5Yosys5RTLILL9escape_idERKNSt7__cxx1112basic_stringIcSt11char_traitsIcESaIcEEE.exit: ; preds = %20, %21
  invoke void @_ZN5Yosys5RTLIL8IdStringaSERKNSt7__cxx1112basic_stringIcSt11char_traitsIcESaIcEEE(ptr noundef nonnull align 4 dereferenceable(4) %1, ptr noundef nonnull align 8 dereferenceable(32) %4)
          to label %22 unwind label %30

22:                                               ; preds = %_ZN5Yosys5RTLILL9escape_idERKNSt7__cxx1112basic_stringIcSt11char_traitsIcESaIcEEE.exit
  call void @_ZNSt7__cxx1112basic_stringIcSt11char_traitsIcESaIcEED1Ev(ptr noundef nonnull align 8 dereferenceable(32) %4) #21
  %23 = getelementptr inbounds i8, ptr %0, i64 112
  call fastcc void @_ZN12_GLOBAL__N_110make_valueERNSt7__cxx1112basic_stringIcSt11char_traitsIcESaIcEEE(ptr dead_on_unwind noalias nonnull writable align 8 %5, ptr noundef nonnull align 8 dereferenceable(32) %23)
  %24 = load i32, ptr %5, align 8
  store i32 %24, ptr %2, align 8
  %25 = getelementptr inbounds i8, ptr %2, i64 8
  %26 = getelementptr inbounds i8, ptr %5, i64 8
  %27 = invoke noundef nonnull align 8 dereferenceable(24) ptr @_ZNSt6vectorIN5Yosys5RTLIL5StateESaIS2_EEaSERKS4_(ptr noundef nonnull align 8 dereferenceable(24) %25, ptr noundef nonnull align 8 dereferenceable(24) %26)
          to label %_ZN5Yosys5RTLIL5ConstaSERKS1_.exit unwind label %32

_ZN5Yosys5RTLIL5ConstaSERKS1_.exit:               ; preds = %22
  %28 = load ptr, ptr %26, align 8
  %.not.i.i.i.i = icmp eq ptr %28, null
  br i1 %.not.i.i.i.i, label %_ZN5Yosys5RTLIL5ConstD2Ev.exit, label %29

29:                                               ; preds = %_ZN5Yosys5RTLIL5ConstaSERKS1_.exit
  call void @_ZdlPv(ptr noundef nonnull %28) #22
  br label %_ZN5Yosys5RTLIL5ConstD2Ev.exit

30:                                               ; preds = %_ZN5Yosys5RTLILL9escape_idERKNSt7__cxx1112basic_stringIcSt11char_traitsIcESaIcEEE.exit
  %31 = landingpad { ptr, i32 }
          cleanup
  call void @_ZNSt7__cxx1112basic_stringIcSt11char_traitsIcESaIcEED1Ev(ptr noundef nonnull align 8 dereferenceable(32) %4) #21
  br label %_ZN5Yosys5RTLIL5ConstD2Ev.exit9

32:                                               ; preds = %22
  %33 = landingpad { ptr, i32 }
          cleanup
  %34 = load ptr, ptr %26, align 8
  %.not.i.i.i.i8 = icmp eq ptr %34, null
  br i1 %.not.i.i.i.i8, label %_ZN5Yosys5RTLIL5ConstD2Ev.exit9, label %35

35:                                               ; preds = %32
  call void @_ZdlPv(ptr noundef nonnull %34) #22
  br label %_ZN5Yosys5RTLIL5ConstD2Ev.exit9

_ZN5Yosys5RTLIL5ConstD2Ev.exit:                   ; preds = %29, %_ZN5Yosys5RTLIL5ConstaSERKS1_.exit, %8, %3
  ret i1 true

_ZN5Yosys5RTLIL5ConstD2Ev.exit9:                  ; preds = %35, %32, %30
  %.pn = phi { ptr, i32 } [ %31, %30 ], [ %33, %32 ], [ %33, %35 ]
  resume { ptr, i32 } %.pn
}